
heap-stack:     file format elf64-x86-64


Disassembly of section .init:

0000000000001000 <_init>:
    1000:	f3 0f 1e fa          	endbr64 
    1004:	48 83 ec 08          	sub    rsp,0x8
    1008:	48 8b 05 d9 2f 00 00 	mov    rax,QWORD PTR [rip+0x2fd9]        # 3fe8 <__gmon_start__>
    100f:	48 85 c0             	test   rax,rax
    1012:	74 02                	je     1016 <_init+0x16>
    1014:	ff d0                	call   rax
    1016:	48 83 c4 08          	add    rsp,0x8
    101a:	c3                   	ret    

Disassembly of section .plt:

0000000000001020 <.plt>:
    1020:	ff 35 7a 2f 00 00    	push   QWORD PTR [rip+0x2f7a]        # 3fa0 <_GLOBAL_OFFSET_TABLE_+0x8>
    1026:	f2 ff 25 7b 2f 00 00 	bnd jmp QWORD PTR [rip+0x2f7b]        # 3fa8 <_GLOBAL_OFFSET_TABLE_+0x10>
    102d:	0f 1f 00             	nop    DWORD PTR [rax]
    1030:	f3 0f 1e fa          	endbr64 
    1034:	68 00 00 00 00       	push   0x0
    1039:	f2 e9 e1 ff ff ff    	bnd jmp 1020 <.plt>
    103f:	90                   	nop
    1040:	f3 0f 1e fa          	endbr64 
    1044:	68 01 00 00 00       	push   0x1
    1049:	f2 e9 d1 ff ff ff    	bnd jmp 1020 <.plt>
    104f:	90                   	nop
    1050:	f3 0f 1e fa          	endbr64 
    1054:	68 02 00 00 00       	push   0x2
    1059:	f2 e9 c1 ff ff ff    	bnd jmp 1020 <.plt>
    105f:	90                   	nop
    1060:	f3 0f 1e fa          	endbr64 
    1064:	68 03 00 00 00       	push   0x3
    1069:	f2 e9 b1 ff ff ff    	bnd jmp 1020 <.plt>
    106f:	90                   	nop

Disassembly of section .plt.got:

0000000000001070 <__cxa_finalize@plt>:
    1070:	f3 0f 1e fa          	endbr64 
    1074:	f2 ff 25 55 2f 00 00 	bnd jmp QWORD PTR [rip+0x2f55]        # 3fd0 <__cxa_finalize@GLIBC_2.2.5>
    107b:	0f 1f 44 00 00       	nop    DWORD PTR [rax+rax*1+0x0]

Disassembly of section .plt.sec:

0000000000001080 <__cxa_atexit@plt>:
    1080:	f3 0f 1e fa          	endbr64 
    1084:	f2 ff 25 25 2f 00 00 	bnd jmp QWORD PTR [rip+0x2f25]        # 3fb0 <__cxa_atexit@GLIBC_2.2.5>
    108b:	0f 1f 44 00 00       	nop    DWORD PTR [rax+rax*1+0x0]

0000000000001090 <__stack_chk_fail@plt>:
    1090:	f3 0f 1e fa          	endbr64 
    1094:	f2 ff 25 1d 2f 00 00 	bnd jmp QWORD PTR [rip+0x2f1d]        # 3fb8 <__stack_chk_fail@GLIBC_2.4>
    109b:	0f 1f 44 00 00       	nop    DWORD PTR [rax+rax*1+0x0]

00000000000010a0 <malloc@plt>:
    10a0:	f3 0f 1e fa          	endbr64 
    10a4:	f2 ff 25 15 2f 00 00 	bnd jmp QWORD PTR [rip+0x2f15]        # 3fc0 <malloc@GLIBC_2.2.5>
    10ab:	0f 1f 44 00 00       	nop    DWORD PTR [rax+rax*1+0x0]

00000000000010b0 <_ZNSt8ios_base4InitC1Ev@plt>:
    10b0:	f3 0f 1e fa          	endbr64 
    10b4:	f2 ff 25 0d 2f 00 00 	bnd jmp QWORD PTR [rip+0x2f0d]        # 3fc8 <_ZNSt8ios_base4InitC1Ev@GLIBCXX_3.4>
    10bb:	0f 1f 44 00 00       	nop    DWORD PTR [rax+rax*1+0x0]

Disassembly of section .text:

00000000000010c0 <_start>:
    10c0:	f3 0f 1e fa          	endbr64 
    10c4:	31 ed                	xor    ebp,ebp
    10c6:	49 89 d1             	mov    r9,rdx
    10c9:	5e                   	pop    rsi
    10ca:	48 89 e2             	mov    rdx,rsp
    10cd:	48 83 e4 f0          	and    rsp,0xfffffffffffffff0
    10d1:	50                   	push   rax
    10d2:	54                   	push   rsp
    10d3:	4c 8d 05 86 02 00 00 	lea    r8,[rip+0x286]        # 1360 <__libc_csu_fini>
    10da:	48 8d 0d 0f 02 00 00 	lea    rcx,[rip+0x20f]        # 12f0 <__libc_csu_init>
    10e1:	48 8d 3d c1 00 00 00 	lea    rdi,[rip+0xc1]        # 11a9 <main>
    10e8:	ff 15 f2 2e 00 00    	call   QWORD PTR [rip+0x2ef2]        # 3fe0 <__libc_start_main@GLIBC_2.2.5>
    10ee:	f4                   	hlt    
    10ef:	90                   	nop

00000000000010f0 <deregister_tm_clones>:
    10f0:	48 8d 3d 19 2f 00 00 	lea    rdi,[rip+0x2f19]        # 4010 <__TMC_END__>
    10f7:	48 8d 05 12 2f 00 00 	lea    rax,[rip+0x2f12]        # 4010 <__TMC_END__>
    10fe:	48 39 f8             	cmp    rax,rdi
    1101:	74 15                	je     1118 <deregister_tm_clones+0x28>
    1103:	48 8b 05 ce 2e 00 00 	mov    rax,QWORD PTR [rip+0x2ece]        # 3fd8 <_ITM_deregisterTMCloneTable>
    110a:	48 85 c0             	test   rax,rax
    110d:	74 09                	je     1118 <deregister_tm_clones+0x28>
    110f:	ff e0                	jmp    rax
    1111:	0f 1f 80 00 00 00 00 	nop    DWORD PTR [rax+0x0]
    1118:	c3                   	ret    
    1119:	0f 1f 80 00 00 00 00 	nop    DWORD PTR [rax+0x0]

0000000000001120 <register_tm_clones>:
    1120:	48 8d 3d e9 2e 00 00 	lea    rdi,[rip+0x2ee9]        # 4010 <__TMC_END__>
    1127:	48 8d 35 e2 2e 00 00 	lea    rsi,[rip+0x2ee2]        # 4010 <__TMC_END__>
    112e:	48 29 fe             	sub    rsi,rdi
    1131:	48 89 f0             	mov    rax,rsi
    1134:	48 c1 ee 3f          	shr    rsi,0x3f
    1138:	48 c1 f8 03          	sar    rax,0x3
    113c:	48 01 c6             	add    rsi,rax
    113f:	48 d1 fe             	sar    rsi,1
    1142:	74 14                	je     1158 <register_tm_clones+0x38>
    1144:	48 8b 05 a5 2e 00 00 	mov    rax,QWORD PTR [rip+0x2ea5]        # 3ff0 <_ITM_registerTMCloneTable>
    114b:	48 85 c0             	test   rax,rax
    114e:	74 08                	je     1158 <register_tm_clones+0x38>
    1150:	ff e0                	jmp    rax
    1152:	66 0f 1f 44 00 00    	nop    WORD PTR [rax+rax*1+0x0]
    1158:	c3                   	ret    
    1159:	0f 1f 80 00 00 00 00 	nop    DWORD PTR [rax+0x0]

0000000000001160 <__do_global_dtors_aux>:
    1160:	f3 0f 1e fa          	endbr64 
    1164:	80 3d a5 2e 00 00 00 	cmp    BYTE PTR [rip+0x2ea5],0x0        # 4010 <__TMC_END__>
    116b:	75 2b                	jne    1198 <__do_global_dtors_aux+0x38>
    116d:	55                   	push   rbp
    116e:	48 83 3d 5a 2e 00 00 	cmp    QWORD PTR [rip+0x2e5a],0x0        # 3fd0 <__cxa_finalize@GLIBC_2.2.5>
    1175:	00 
    1176:	48 89 e5             	mov    rbp,rsp
    1179:	74 0c                	je     1187 <__do_global_dtors_aux+0x27>
    117b:	48 8b 3d 86 2e 00 00 	mov    rdi,QWORD PTR [rip+0x2e86]        # 4008 <__dso_handle>
    1182:	e8 e9 fe ff ff       	call   1070 <__cxa_finalize@plt>
    1187:	e8 64 ff ff ff       	call   10f0 <deregister_tm_clones>
    118c:	c6 05 7d 2e 00 00 01 	mov    BYTE PTR [rip+0x2e7d],0x1        # 4010 <__TMC_END__>
    1193:	5d                   	pop    rbp
    1194:	c3                   	ret    
    1195:	0f 1f 00             	nop    DWORD PTR [rax]
    1198:	c3                   	ret    
    1199:	0f 1f 80 00 00 00 00 	nop    DWORD PTR [rax+0x0]

00000000000011a0 <frame_dummy>:
    11a0:	f3 0f 1e fa          	endbr64 
    11a4:	e9 77 ff ff ff       	jmp    1120 <register_tm_clones>

00000000000011a9 <main>:
    11a9:	f3 0f 1e fa          	endbr64 
    11ad:	55                   	push   rbp
    11ae:	48 89 e5             	mov    rbp,rsp
    11b1:	4c 8d 9c 24 00 80 ff 	lea    r11,[rsp-0x8000]
    11b8:	ff 
    11b9:	48 81 ec 00 10 00 00 	sub    rsp,0x1000
    11c0:	48 83 0c 24 00       	or     QWORD PTR [rsp],0x0
    11c5:	4c 39 dc             	cmp    rsp,r11
    11c8:	75 ef                	jne    11b9 <main+0x10>
    11ca:	48 83 ec 20          	sub    rsp,0x20
    11ce:	64 48 8b 04 25 28 00 	mov    rax,QWORD PTR fs:0x28
    11d5:	00 00 
    11d7:	48 89 45 f8          	mov    QWORD PTR [rbp-0x8],rax
    11db:	31 c0                	xor    eax,eax
    11dd:	bf 00 80 00 00       	mov    edi,0x8000
    11e2:	e8 b9 fe ff ff       	call   10a0 <malloc@plt>
    11e7:	48 89 85 e8 7f ff ff 	mov    QWORD PTR [rbp-0x8018],rax
    11ee:	c7 85 e0 7f ff ff 00 	mov    DWORD PTR [rbp-0x8020],0x0
    11f5:	00 00 00 
    11f8:	81 bd e0 7f ff ff ff 	cmp    DWORD PTR [rbp-0x8020],0x1fff
    11ff:	1f 00 00 
    1202:	7f 1e                	jg     1222 <main+0x79>
    1204:	8b 85 e0 7f ff ff    	mov    eax,DWORD PTR [rbp-0x8020]
    120a:	48 98                	cdqe   
    120c:	8b 95 e0 7f ff ff    	mov    edx,DWORD PTR [rbp-0x8020]
    1212:	89 94 85 f0 7f ff ff 	mov    DWORD PTR [rbp+rax*4-0x8010],edx
    1219:	83 85 e0 7f ff ff 01 	add    DWORD PTR [rbp-0x8020],0x1
    1220:	eb d6                	jmp    11f8 <main+0x4f>
    1222:	c7 85 e4 7f ff ff 00 	mov    DWORD PTR [rbp-0x801c],0x0
    1229:	00 00 00 
    122c:	81 bd e4 7f ff ff ff 	cmp    DWORD PTR [rbp-0x801c],0x1fff
    1233:	1f 00 00 
    1236:	7f 2b                	jg     1263 <main+0xba>
    1238:	8b 85 e4 7f ff ff    	mov    eax,DWORD PTR [rbp-0x801c]
    123e:	48 98                	cdqe   
    1240:	48 8d 14 85 00 00 00 	lea    rdx,[rax*4+0x0]
    1247:	00 
    1248:	48 8b 85 e8 7f ff ff 	mov    rax,QWORD PTR [rbp-0x8018]
    124f:	48 01 c2             	add    rdx,rax
    1252:	8b 85 e4 7f ff ff    	mov    eax,DWORD PTR [rbp-0x801c]
    1258:	89 02                	mov    DWORD PTR [rdx],eax
    125a:	83 85 e4 7f ff ff 01 	add    DWORD PTR [rbp-0x801c],0x1
    1261:	eb c9                	jmp    122c <main+0x83>
    1263:	b8 00 00 00 00       	mov    eax,0x0
    1268:	48 8b 4d f8          	mov    rcx,QWORD PTR [rbp-0x8]
    126c:	64 48 33 0c 25 28 00 	xor    rcx,QWORD PTR fs:0x28
    1273:	00 00 
    1275:	74 05                	je     127c <main+0xd3>
    1277:	e8 14 fe ff ff       	call   1090 <__stack_chk_fail@plt>
    127c:	c9                   	leave  
    127d:	c3                   	ret    

000000000000127e <_Z41__static_initialization_and_destruction_0ii>:
    127e:	f3 0f 1e fa          	endbr64 
    1282:	55                   	push   rbp
    1283:	48 89 e5             	mov    rbp,rsp
    1286:	48 83 ec 10          	sub    rsp,0x10
    128a:	89 7d fc             	mov    DWORD PTR [rbp-0x4],edi
    128d:	89 75 f8             	mov    DWORD PTR [rbp-0x8],esi
    1290:	83 7d fc 01          	cmp    DWORD PTR [rbp-0x4],0x1
    1294:	75 32                	jne    12c8 <_Z41__static_initialization_and_destruction_0ii+0x4a>
    1296:	81 7d f8 ff ff 00 00 	cmp    DWORD PTR [rbp-0x8],0xffff
    129d:	75 29                	jne    12c8 <_Z41__static_initialization_and_destruction_0ii+0x4a>
    129f:	48 8d 3d 6b 2d 00 00 	lea    rdi,[rip+0x2d6b]        # 4011 <_ZStL8__ioinit>
    12a6:	e8 05 fe ff ff       	call   10b0 <_ZNSt8ios_base4InitC1Ev@plt>
    12ab:	48 8d 15 56 2d 00 00 	lea    rdx,[rip+0x2d56]        # 4008 <__dso_handle>
    12b2:	48 8d 35 58 2d 00 00 	lea    rsi,[rip+0x2d58]        # 4011 <_ZStL8__ioinit>
    12b9:	48 8b 05 38 2d 00 00 	mov    rax,QWORD PTR [rip+0x2d38]        # 3ff8 <_ZNSt8ios_base4InitD1Ev@GLIBCXX_3.4>
    12c0:	48 89 c7             	mov    rdi,rax
    12c3:	e8 b8 fd ff ff       	call   1080 <__cxa_atexit@plt>
    12c8:	90                   	nop
    12c9:	c9                   	leave  
    12ca:	c3                   	ret    

00000000000012cb <_GLOBAL__sub_I_main>:
    12cb:	f3 0f 1e fa          	endbr64 
    12cf:	55                   	push   rbp
    12d0:	48 89 e5             	mov    rbp,rsp
    12d3:	be ff ff 00 00       	mov    esi,0xffff
    12d8:	bf 01 00 00 00       	mov    edi,0x1
    12dd:	e8 9c ff ff ff       	call   127e <_Z41__static_initialization_and_destruction_0ii>
    12e2:	5d                   	pop    rbp
    12e3:	c3                   	ret    
    12e4:	66 2e 0f 1f 84 00 00 	nop    WORD PTR cs:[rax+rax*1+0x0]
    12eb:	00 00 00 
    12ee:	66 90                	xchg   ax,ax

00000000000012f0 <__libc_csu_init>:
    12f0:	f3 0f 1e fa          	endbr64 
    12f4:	41 57                	push   r15
    12f6:	4c 8d 3d 83 2a 00 00 	lea    r15,[rip+0x2a83]        # 3d80 <__frame_dummy_init_array_entry>
    12fd:	41 56                	push   r14
    12ff:	49 89 d6             	mov    r14,rdx
    1302:	41 55                	push   r13
    1304:	49 89 f5             	mov    r13,rsi
    1307:	41 54                	push   r12
    1309:	41 89 fc             	mov    r12d,edi
    130c:	55                   	push   rbp
    130d:	48 8d 2d 7c 2a 00 00 	lea    rbp,[rip+0x2a7c]        # 3d90 <__do_global_dtors_aux_fini_array_entry>
    1314:	53                   	push   rbx
    1315:	4c 29 fd             	sub    rbp,r15
    1318:	48 83 ec 08          	sub    rsp,0x8
    131c:	e8 df fc ff ff       	call   1000 <_init>
    1321:	48 c1 fd 03          	sar    rbp,0x3
    1325:	74 1f                	je     1346 <__libc_csu_init+0x56>
    1327:	31 db                	xor    ebx,ebx
    1329:	0f 1f 80 00 00 00 00 	nop    DWORD PTR [rax+0x0]
    1330:	4c 89 f2             	mov    rdx,r14
    1333:	4c 89 ee             	mov    rsi,r13
    1336:	44 89 e7             	mov    edi,r12d
    1339:	41 ff 14 df          	call   QWORD PTR [r15+rbx*8]
    133d:	48 83 c3 01          	add    rbx,0x1
    1341:	48 39 dd             	cmp    rbp,rbx
    1344:	75 ea                	jne    1330 <__libc_csu_init+0x40>
    1346:	48 83 c4 08          	add    rsp,0x8
    134a:	5b                   	pop    rbx
    134b:	5d                   	pop    rbp
    134c:	41 5c                	pop    r12
    134e:	41 5d                	pop    r13
    1350:	41 5e                	pop    r14
    1352:	41 5f                	pop    r15
    1354:	c3                   	ret    
    1355:	66 66 2e 0f 1f 84 00 	data16 nop WORD PTR cs:[rax+rax*1+0x0]
    135c:	00 00 00 00 

0000000000001360 <__libc_csu_fini>:
    1360:	f3 0f 1e fa          	endbr64 
    1364:	c3                   	ret    

Disassembly of section .fini:

0000000000001368 <_fini>:
    1368:	f3 0f 1e fa          	endbr64 
    136c:	48 83 ec 08          	sub    rsp,0x8
    1370:	48 83 c4 08          	add    rsp,0x8
    1374:	c3                   	ret    
